target datalayout = "e-m:e-p270:32:32-p271:32:32-p272:64:64-i64:64-i128:128-f80:128-n8:16:32:64-S128"
target triple = "x86_64-pc-linux-gnu"

%struct.X509_POLICY_NODE_st = type { ptr, ptr, i32 }
%struct.X509_POLICY_DATA_st = type { i32, ptr, ptr, ptr }

@.str.5 = private unnamed_addr constant [12 x i8] c"%*sPolicy: \00", align 1
@.str.6 = private unnamed_addr constant [1 x i8] zeroinitializer, align 1
@.str.7 = private unnamed_addr constant [2 x i8] c"\0A\00", align 1
@.str.8 = private unnamed_addr constant [7 x i8] c"%*s%s\0A\00", align 1
@.str.9 = private unnamed_addr constant [9 x i8] c"Critical\00", align 1
@.str.10 = private unnamed_addr constant [13 x i8] c"Non Critical\00", align 1
@.str.11 = private unnamed_addr constant [18 x i8] c"%*sNo Qualifiers\0A\00", align 1

; Function Attrs: nounwind uwtable
define void @X509_POLICY_NODE_print(ptr noundef %0, ptr noundef %1, i32 noundef %2) #0 {
  %4 = alloca ptr, align 8
  %5 = alloca ptr, align 8
  %6 = alloca i32, align 4
  %7 = alloca ptr, align 8
  store ptr %0, ptr %4, align 8, !tbaa !10
  store ptr %1, ptr %5, align 8, !tbaa !56
  store i32 %2, ptr %6, align 4, !tbaa !12
  call void @llvm.lifetime.start.p0(i64 8, ptr %7) #5
  %8 = load ptr, ptr %5, align 8, !tbaa !56
  %9 = getelementptr inbounds nuw %struct.X509_POLICY_NODE_st, ptr %8, i32 0, i32 0
  %10 = load ptr, ptr %9, align 8, !tbaa !58
  store ptr %10, ptr %7, align 8, !tbaa !61
  %11 = load ptr, ptr %4, align 8, !tbaa !10
  %12 = load i32, ptr %6, align 4, !tbaa !12
  %13 = call i32 (ptr, ptr, ...) @BIO_printf(ptr noundef %11, ptr noundef @.str.5, i32 noundef %12, ptr noundef @.str.6)
  %14 = load ptr, ptr %4, align 8, !tbaa !10
  %15 = load ptr, ptr %7, align 8, !tbaa !61
  %16 = getelementptr inbounds nuw %struct.X509_POLICY_DATA_st, ptr %15, i32 0, i32 1
  %17 = load ptr, ptr %16, align 8, !tbaa !62
  %18 = call i32 @i2a_ASN1_OBJECT(ptr noundef %14, ptr noundef %17)
  %19 = load ptr, ptr %4, align 8, !tbaa !10
  %20 = call i32 @BIO_puts(ptr noundef %19, ptr noundef @.str.7)
  %21 = load ptr, ptr %4, align 8, !tbaa !10
  %22 = load i32, ptr %6, align 4, !tbaa !12
  %23 = add nsw i32 %22, 2
  %24 = load ptr, ptr %7, align 8, !tbaa !61
  %25 = getelementptr inbounds nuw %struct.X509_POLICY_DATA_st, ptr %24, i32 0, i32 0
  %26 = load i32, ptr %25, align 8, !tbaa !65
  %27 = and i32 %26, 16
  %28 = icmp ne i32 %27, 0
  %29 = select i1 %28, ptr @.str.9, ptr @.str.10
  %30 = call i32 (ptr, ptr, ...) @BIO_printf(ptr noundef %21, ptr noundef @.str.8, i32 noundef %23, ptr noundef @.str.6, ptr noundef %29)
  %31 = load ptr, ptr %7, align 8, !tbaa !61
  %32 = getelementptr inbounds nuw %struct.X509_POLICY_DATA_st, ptr %31, i32 0, i32 2
  %33 = load ptr, ptr %32, align 8, !tbaa !66
  %34 = icmp ne ptr %33, null
  br i1 %34, label %35, label %44

35:                                               ; preds = %3
  %36 = load ptr, ptr %4, align 8, !tbaa !10
  %37 = load ptr, ptr %7, align 8, !tbaa !61
  %38 = getelementptr inbounds nuw %struct.X509_POLICY_DATA_st, ptr %37, i32 0, i32 2
  %39 = load ptr, ptr %38, align 8, !tbaa !66
  %40 = load i32, ptr %6, align 4, !tbaa !12
  %41 = add nsw i32 %40, 2
  call void @print_qualifiers(ptr noundef %36, ptr noundef %39, i32 noundef %41)
  %42 = load ptr, ptr %4, align 8, !tbaa !10
  %43 = call i32 @BIO_puts(ptr noundef %42, ptr noundef @.str.7)
  br label %49

44:                                               ; preds = %3
  %45 = load ptr, ptr %4, align 8, !tbaa !10
  %46 = load i32, ptr %6, align 4, !tbaa !12
  %47 = add nsw i32 %46, 2
  %48 = call i32 (ptr, ptr, ...) @BIO_printf(ptr noundef %45, ptr noundef @.str.11, i32 noundef %47, ptr noundef @.str.6)
  br label %49

49:                                               ; preds = %44, %35
  call void @llvm.lifetime.end.p0(i64 8, ptr %7) #5
  ret void
}