; Function Attrs: nounwind uwtable
define void @X509_POLICY_NODE_print(ptr noundef %0, ptr noundef readonly captures(none) %1, i32 noundef %2) local_unnamed_addr #1 {
  %4 = load ptr, ptr %1, align 8, !tbaa !38
  %5 = tail call i32 (ptr, ptr, ...) @BIO_printf(ptr noundef %0, ptr noundef nonnull @.str.5, i32 noundef %2, ptr noundef nonnull @.str.6) #4
  %6 = getelementptr inbounds nuw i8, ptr %4, i64 8
  %7 = load ptr, ptr %6, align 8, !tbaa !42
  %8 = tail call i32 @i2a_ASN1_OBJECT(ptr noundef %0, ptr noundef %7) #4
  %9 = tail call i32 @BIO_puts(ptr noundef %0, ptr noundef nonnull @.str.7) #4
  %10 = add nsw i32 %2, 2
  %11 = load i32, ptr %4, align 8, !tbaa !45
  %12 = and i32 %11, 16
  %.not = icmp eq i32 %12, 0
  %13 = select i1 %.not, ptr @.str.10, ptr @.str.9
  %14 = tail call i32 (ptr, ptr, ...) @BIO_printf(ptr noundef %0, ptr noundef nonnull @.str.8, i32 noundef %10, ptr noundef nonnull @.str.6, ptr noundef nonnull %13) #4
  %15 = getelementptr inbounds nuw i8, ptr %4, i64 16
  %16 = load ptr, ptr %15, align 8, !tbaa !46
  %.not15 = icmp eq ptr %16, null
  br i1 %.not15, label %19, label %17

17:                                               ; preds = %3
  tail call fastcc void @print_qualifiers(ptr noundef %0, ptr noundef nonnull %16, i32 noundef %10)
  %18 = tail call i32 @BIO_puts(ptr noundef %0, ptr noundef nonnull @.str.7) #4
  br label %21

19:                                               ; preds = %3
  %20 = tail call i32 (ptr, ptr, ...) @BIO_printf(ptr noundef %0, ptr noundef nonnull @.str.11, i32 noundef %10, ptr noundef nonnull @.str.6) #4
  br label %21

21:                                               ; preds = %19, %17
  ret void
}